target datalayout = "e-m:e-p270:32:32-p271:32:32-p272:64:64-i64:64-i128:128-f80:128-n8:16:32:64-S128"
target triple = "x86_64-pc-linux-gnu"

%class.btVector3 = type { [4 x float] }
%class.btAlignedObjectArray.2 = type <{ [4 x i8], i32, i32, [4 x i8], ptr, i8, [7 x i8] }>
%class.btDeformableMultiBodyDynamicsWorld = type { %class.btMultiBodyDynamicsWorld, ptr, %class.btAlignedObjectArray.24, i32, i8, i8, i8, %struct.btSoftBodyWorldInfo, float, i32, i8, i8, i8, ptr, ptr }
%class.btMultiBodyDynamicsWorld = type { %class.btDiscreteDynamicsWorld.base, [4 x i8], %class.btAlignedObjectArray.14, %class.btAlignedObjectArray.16, %class.btAlignedObjectArray.16, ptr, ptr, %class.btAlignedObjectArray.18, %class.btAlignedObjectArray.2, %class.btAlignedObjectArray.18, %class.btAlignedObjectArray.2, %class.btAlignedObjectArray.20, %class.btAlignedObjectArray.2, %class.btAlignedObjectArray.22 }
%class.btDiscreteDynamicsWorld.base = type <{ %class.btDynamicsWorld, %class.btAlignedObjectArray.6, ptr, ptr, ptr, %class.btAlignedObjectArray.6, %class.btAlignedObjectArray.8, %class.btVector3, float, float, i8, i8, i8, i8, [4 x i8], %class.btAlignedObjectArray.10, i32, i8, [3 x i8], %class.btAlignedObjectArray.12, %class.btSpinMutex }>
%class.btDynamicsWorld = type { %class.btCollisionWorld.base, ptr, ptr, ptr, %struct.btContactSolverInfo }
%class.btCollisionWorld.base = type <{ ptr, %class.btAlignedObjectArray.4, ptr, %struct.btDispatcherInfo, ptr, ptr, i8 }>
%class.btAlignedObjectArray.4 = type <{ [4 x i8], i32, i32, [4 x i8], ptr, i8, [7 x i8] }>
%struct.btDispatcherInfo = type <{ float, i32, i32, float, i8, [7 x i8], ptr, i8, i8, i8, i8, float, i8, [3 x i8], float, i8, [7 x i8] }>
%struct.btContactSolverInfo = type { %struct.btContactSolverInfoData }
%struct.btContactSolverInfoData = type { float, float, float, float, float, i32, float, float, float, float, float, float, float, float, float, float, i32, float, float, float, float, float, i32, i32, i32, float, float, float, float, i8, i8, i32, i32 }
%class.btAlignedObjectArray.6 = type <{ [4 x i8], i32, i32, [4 x i8], ptr, i8, [7 x i8] }>
%class.btAlignedObjectArray.8 = type <{ [4 x i8], i32, i32, [4 x i8], ptr, i8, [7 x i8] }>
%class.btAlignedObjectArray.10 = type <{ [4 x i8], i32, i32, [4 x i8], ptr, i8, [7 x i8] }>
%class.btAlignedObjectArray.12 = type <{ [4 x i8], i32, i32, [4 x i8], ptr, i8, [7 x i8] }>
%class.btSpinMutex = type { i32 }
%class.btAlignedObjectArray.14 = type <{ [4 x i8], i32, i32, [4 x i8], ptr, i8, [7 x i8] }>
%class.btAlignedObjectArray.16 = type <{ [4 x i8], i32, i32, [4 x i8], ptr, i8, [7 x i8] }>
%class.btAlignedObjectArray.18 = type <{ [4 x i8], i32, i32, [4 x i8], ptr, i8, [7 x i8] }>
%class.btAlignedObjectArray.20 = type <{ [4 x i8], i32, i32, [4 x i8], ptr, i8, [7 x i8] }>
%class.btAlignedObjectArray.22 = type <{ [4 x i8], i32, i32, [4 x i8], ptr, i8, [7 x i8] }>
%class.btAlignedObjectArray.24 = type <{ [4 x i8], i32, i32, [4 x i8], ptr, i8, [7 x i8] }>
%struct.btSoftBodyWorldInfo = type { float, float, float, float, %class.btVector3, ptr, ptr, %class.btVector3, %struct.btSparseSdf }
%struct.btSparseSdf = type { %class.btAlignedObjectArray.26, float, float, i32, i32, i32, i32, i32, [4 x i8] }
%class.btAlignedObjectArray.26 = type <{ [4 x i8], i32, i32, [4 x i8], ptr, i8, [7 x i8] }>
%class.CProfileSample = type { i8 }

@.str.12 = private unnamed_addr constant [26 x i8] c"predictUnconstraintMotion\00", align 1

; Function Attrs: mustprogress uwtable
define dso_local void @_ZN34btDeformableMultiBodyDynamicsWorld25predictUnconstraintMotionEf(ptr noundef nonnull align 8 dereferenceable(1056) %0, float noundef %1) unnamed_addr #7 align 2 personality ptr @__gxx_personality_v0 {
  %3 = alloca ptr, align 8
  %4 = alloca float, align 4
  %5 = alloca %class.CProfileSample, align 1
  %6 = alloca ptr, align 8
  %7 = alloca i32, align 4
  store ptr %0, ptr %3, align 8, !tbaa !58
  store float %1, ptr %4, align 4, !tbaa !12
  %8 = load ptr, ptr %3, align 8
  call void @llvm.lifetime.start.p0(i64 1, ptr %5) #4
  call void @_ZN14CProfileSampleC1EPKc(ptr noundef nonnull align 1 dereferenceable(1) %5, ptr noundef @.str.12)
  %9 = load float, ptr %4, align 4, !tbaa !12
  invoke void @_ZN24btMultiBodyDynamicsWorld25predictUnconstraintMotionEf(ptr noundef nonnull align 8 dereferenceable(848) %8, float noundef %9)
          to label %10 unwind label %18

10:                                               ; preds = %2
  %11 = getelementptr inbounds nuw %class.btDeformableMultiBodyDynamicsWorld, ptr %8, i32 0, i32 1
  %12 = load ptr, ptr %11, align 8, !tbaa !70
  %13 = load float, ptr %4, align 4, !tbaa !12
  %14 = load ptr, ptr %12, align 8, !tbaa !51
  %15 = getelementptr inbounds ptr, ptr %14, i64 6
  %16 = load ptr, ptr %15, align 8
  invoke void %16(ptr noundef nonnull align 8 dereferenceable(609) %12, float noundef %13)
          to label %17 unwind label %18

17:                                               ; preds = %10
  call void @_ZN14CProfileSampleD1Ev(ptr noundef nonnull align 1 dereferenceable(1) %5) #4
  call void @llvm.lifetime.end.p0(i64 1, ptr %5) #4
  ret void

18:                                               ; preds = %10, %2
  %19 = landingpad { ptr, i32 }
          cleanup
  %20 = extractvalue { ptr, i32 } %19, 0
  store ptr %20, ptr %6, align 8
  %21 = extractvalue { ptr, i32 } %19, 1
  store i32 %21, ptr %7, align 4
  call void @_ZN14CProfileSampleD1Ev(ptr noundef nonnull align 1 dereferenceable(1) %5) #4
  call void @llvm.lifetime.end.p0(i64 1, ptr %5) #4
  br label %22

22:                                               ; preds = %18
  %23 = load ptr, ptr %6, align 8
  %24 = load i32, ptr %7, align 4
  %25 = insertvalue { ptr, i32 } poison, ptr %23, 0
  %26 = insertvalue { ptr, i32 } %25, i32 %24, 1
  resume { ptr, i32 } %26
}