; Function Attrs: mustprogress uwtable
define dso_local void @_ZN34btDeformableMultiBodyDynamicsWorld25predictUnconstraintMotionEf(ptr noundef nonnull align 8 dereferenceable(1056) %0, float noundef %1) unnamed_addr #4 align 2 personality ptr @__gxx_personality_v0 {
  %3 = alloca %class.CProfileSample, align 1
  call void @llvm.lifetime.start.p0(i64 1, ptr nonnull %3) #21
  call void @_ZN14CProfileSampleC1EPKc(ptr noundef nonnull align 1 dereferenceable(1) %3, ptr noundef nonnull @.str.12)
  invoke void @_ZN24btMultiBodyDynamicsWorld25predictUnconstraintMotionEf(ptr noundef nonnull align 8 dereferenceable(848) %0, float noundef %1)
          to label %4 unwind label %11

4:                                                ; preds = %2
  %5 = getelementptr inbounds nuw i8, ptr %0, i64 848
  %6 = load ptr, ptr %5, align 8, !tbaa !81
  %7 = load ptr, ptr %6, align 8, !tbaa !50
  %8 = getelementptr inbounds nuw i8, ptr %7, i64 48
  %9 = load ptr, ptr %8, align 8
  invoke void %9(ptr noundef nonnull align 8 dereferenceable(609) %6, float noundef %1)
          to label %10 unwind label %11

10:                                               ; preds = %4
  call void @_ZN14CProfileSampleD1Ev(ptr noundef nonnull align 1 dereferenceable(1) %3) #21
  call void @llvm.lifetime.end.p0(i64 1, ptr nonnull %3) #21
  ret void

11:                                               ; preds = %4, %2
  %12 = landingpad { ptr, i32 }
          cleanup
  call void @_ZN14CProfileSampleD1Ev(ptr noundef nonnull align 1 dereferenceable(1) %3) #21
  call void @llvm.lifetime.end.p0(i64 1, ptr nonnull %3) #21
  resume { ptr, i32 } %12
}